
rootfs/bin/init:     file format elf64-x86-64


Disassembly of section .text:

00000000004000b0 <_start>:
  4000b0:	41 54                	push   %r12
  4000b2:	55                   	push   %rbp
  4000b3:	53                   	push   %rbx
  4000b4:	48 81 ec 00 03 00 00 	sub    $0x300,%rsp
  4000bb:	49 89 e4             	mov    %rsp,%r12
  4000be:	4c 89 e5             	mov    %r12,%rbp
  4000c1:	49 8b 9c 24 18 03 00 	mov    0x318(%r12),%rbx
  4000c8:	00 
  4000c9:	48 8d bc 24 00 02 00 	lea    0x200(%rsp),%rdi
  4000d0:	00 
  4000d1:	b8 00 00 00 00       	mov    $0x0,%eax
  4000d6:	b9 20 00 00 00       	mov    $0x20,%ecx
  4000db:	f3 48 ab             	rep stos %rax,%es:(%rdi)
  4000de:	48 89 e7             	mov    %rsp,%rdi
  4000e1:	b9 40 00 00 00       	mov    $0x40,%ecx
  4000e6:	f3 48 ab             	rep stos %rax,%es:(%rdi)
  4000e9:	83 fb 20             	cmp    $0x20,%ebx
  4000ec:	7e 16                	jle    400104 <_start+0x54>
  4000ee:	48 8d 3d 23 07 00 00 	lea    0x723(%rip),%rdi        # 400818 <memset+0x1d>
  4000f5:	e8 85 02 00 00       	callq  40037f <printf>
  4000fa:	bf 01 00 00 00       	mov    $0x1,%edi
  4000ff:	e8 b9 01 00 00       	callq  4002bd <exit>
  400104:	85 db                	test   %ebx,%ebx
  400106:	7e 29                	jle    400131 <_start+0x81>
  400108:	8d 43 ff             	lea    -0x1(%rbx),%eax
  40010b:	48 8d 0c c5 08 00 00 	lea    0x8(,%rax,8),%rcx
  400112:	00 
  400113:	b8 00 00 00 00       	mov    $0x0,%eax
  400118:	48 8b 94 05 20 03 00 	mov    0x320(%rbp,%rax,1),%rdx
  40011f:	00 
  400120:	48 89 94 04 00 02 00 	mov    %rdx,0x200(%rsp,%rax,1)
  400127:	00 
  400128:	48 83 c0 08          	add    $0x8,%rax
  40012c:	48 39 c8             	cmp    %rcx,%rax
  40012f:	75 e7                	jne    400118 <_start+0x68>
  400131:	48 63 c3             	movslq %ebx,%rax
  400134:	49 8b 94 c4 28 03 00 	mov    0x328(%r12,%rax,8),%rdx
  40013b:	00 
  40013c:	48 85 d2             	test   %rdx,%rdx
  40013f:	74 2a                	je     40016b <_start+0xbb>
  400141:	49 8d 34 c4          	lea    (%r12,%rax,8),%rsi
  400145:	b8 00 00 00 00       	mov    $0x0,%eax
  40014a:	b9 01 00 00 00       	mov    $0x1,%ecx
  40014f:	48 89 14 04          	mov    %rdx,(%rsp,%rax,1)
  400153:	ff c1                	inc    %ecx
  400155:	48 8b 94 06 38 03 00 	mov    0x338(%rsi,%rax,1),%rdx
  40015c:	00 
  40015d:	48 83 c0 08          	add    $0x8,%rax
  400161:	48 85 d2             	test   %rdx,%rdx
  400164:	74 05                	je     40016b <_start+0xbb>
  400166:	83 f9 3f             	cmp    $0x3f,%ecx
  400169:	7e e4                	jle    40014f <_start+0x9f>
  40016b:	48 89 e2             	mov    %rsp,%rdx
  40016e:	48 8d b4 24 00 02 00 	lea    0x200(%rsp),%rsi
  400175:	00 
  400176:	89 df                	mov    %ebx,%edi
  400178:	e8 13 00 00 00       	callq  400190 <main>
  40017d:	89 c7                	mov    %eax,%edi
  40017f:	e8 39 01 00 00       	callq  4002bd <exit>
  400184:	48 81 c4 00 03 00 00 	add    $0x300,%rsp
  40018b:	5b                   	pop    %rbx
  40018c:	5d                   	pop    %rbp
  40018d:	41 5c                	pop    %r12
  40018f:	c3                   	retq   

0000000000400190 <main>:
  400190:	53                   	push   %rbx
  400191:	48 83 ec 30          	sub    $0x30,%rsp
  400195:	48 8d 3d a6 06 00 00 	lea    0x6a6(%rip),%rdi        # 400842 <memset+0x47>
  40019c:	e8 b4 00 00 00       	callq  400255 <puts>
  4001a1:	48 8d 3d f0 06 00 00 	lea    0x6f0(%rip),%rdi        # 400898 <memset+0x9d>
  4001a8:	e8 a8 00 00 00       	callq  400255 <puts>
  4001ad:	48 8d 3d a2 06 00 00 	lea    0x6a2(%rip),%rdi        # 400856 <memset+0x5b>
  4001b4:	e8 9c 00 00 00       	callq  400255 <puts>
  4001b9:	48 8d 05 aa 06 00 00 	lea    0x6aa(%rip),%rax        # 40086a <memset+0x6f>
  4001c0:	48 89 44 24 20       	mov    %rax,0x20(%rsp)
  4001c5:	48 c7 44 24 28 00 00 	movq   $0x0,0x28(%rsp)
  4001cc:	00 00 
  4001ce:	48 8d 05 9f 06 00 00 	lea    0x69f(%rip),%rax        # 400874 <memset+0x79>
  4001d5:	48 89 44 24 10       	mov    %rax,0x10(%rsp)
  4001da:	48 c7 44 24 18 00 00 	movq   $0x0,0x18(%rsp)
  4001e1:	00 00 
  4001e3:	b8 00 00 00 00       	mov    $0x0,%eax
  4001e8:	e8 17 01 00 00       	callq  400304 <fork>
  4001ed:	85 c0                	test   %eax,%eax
  4001ef:	75 16                	jne    400207 <main+0x77>
  4001f1:	48 8d 54 24 10       	lea    0x10(%rsp),%rdx
  4001f6:	48 8d 74 24 20       	lea    0x20(%rsp),%rsi
  4001fb:	48 8b 7c 24 20       	mov    0x20(%rsp),%rdi
  400200:	e8 95 00 00 00       	callq  40029a <execvpe>
  400205:	eb 1a                	jmp    400221 <main+0x91>
  400207:	89 c3                	mov    %eax,%ebx
  400209:	48 8d 3d 6f 06 00 00 	lea    0x66f(%rip),%rdi        # 40087f <memset+0x84>
  400210:	e8 40 00 00 00       	callq  400255 <puts>
  400215:	48 8d 74 24 0c       	lea    0xc(%rsp),%rsi
  40021a:	89 df                	mov    %ebx,%edi
  40021c:	e8 0c 00 00 00       	callq  40022d <waitpid>
  400221:	b8 00 00 00 00       	mov    $0x0,%eax
  400226:	e8 a6 00 00 00       	callq  4002d1 <yeild>
  40022b:	eb f4                	jmp    400221 <main+0x91>

000000000040022d <waitpid>:
  40022d:	49 89 f3             	mov    %rsi,%r11
  400230:	4c 63 c7             	movslq %edi,%r8
  400233:	b9 00 00 00 00       	mov    $0x0,%ecx
  400238:	41 b9 3d 00 00 00    	mov    $0x3d,%r9d
  40023e:	4c 89 c8             	mov    %r9,%rax
  400241:	4c 89 c7             	mov    %r8,%rdi
  400244:	4c 89 de             	mov    %r11,%rsi
  400247:	48 89 ca             	mov    %rcx,%rdx
  40024a:	49 89 ca             	mov    %rcx,%r10
  40024d:	0f 05                	syscall 
  40024f:	48 89 c1             	mov    %rax,%rcx
  400252:	89 c8                	mov    %ecx,%eax
  400254:	c3                   	retq   

0000000000400255 <puts>:
  400255:	53                   	push   %rbx
  400256:	48 89 fb             	mov    %rdi,%rbx
  400259:	0f b6 3f             	movzbl (%rdi),%edi
  40025c:	40 84 ff             	test   %dil,%dil
  40025f:	74 1b                	je     40027c <puts+0x27>
  400261:	40 0f be ff          	movsbl %dil,%edi
  400265:	e8 75 00 00 00       	callq  4002df <putchar>
  40026a:	0f be 13             	movsbl (%rbx),%edx
  40026d:	39 d0                	cmp    %edx,%eax
  40026f:	75 22                	jne    400293 <puts+0x3e>
  400271:	48 ff c3             	inc    %rbx
  400274:	0f b6 3b             	movzbl (%rbx),%edi
  400277:	40 84 ff             	test   %dil,%dil
  40027a:	75 e5                	jne    400261 <puts+0xc>
  40027c:	bf 0a 00 00 00       	mov    $0xa,%edi
  400281:	e8 59 00 00 00       	callq  4002df <putchar>
  400286:	83 f8 0a             	cmp    $0xa,%eax
  400289:	0f 95 c0             	setne  %al
  40028c:	0f b6 c0             	movzbl %al,%eax
  40028f:	f7 d8                	neg    %eax
  400291:	eb 05                	jmp    400298 <puts+0x43>
  400293:	b8 ff ff ff ff       	mov    $0xffffffff,%eax
  400298:	5b                   	pop    %rbx
  400299:	c3                   	retq   

000000000040029a <execvpe>:
  40029a:	49 89 f9             	mov    %rdi,%r9
  40029d:	48 89 f1             	mov    %rsi,%rcx
  4002a0:	49 89 d2             	mov    %rdx,%r10
  4002a3:	41 b8 3b 00 00 00    	mov    $0x3b,%r8d
  4002a9:	4c 89 c0             	mov    %r8,%rax
  4002ac:	4c 89 cf             	mov    %r9,%rdi
  4002af:	48 89 ce             	mov    %rcx,%rsi
  4002b2:	4c 89 d2             	mov    %r10,%rdx
  4002b5:	0f 05                	syscall 
  4002b7:	48 89 c1             	mov    %rax,%rcx
  4002ba:	89 c8                	mov    %ecx,%eax
  4002bc:	c3                   	retq   

00000000004002bd <exit>:
  4002bd:	48 63 d7             	movslq %edi,%rdx
  4002c0:	b9 3c 00 00 00       	mov    $0x3c,%ecx
  4002c5:	48 89 c8             	mov    %rcx,%rax
  4002c8:	48 89 d7             	mov    %rdx,%rdi
  4002cb:	0f 05                	syscall 
  4002cd:	48 89 c2             	mov    %rax,%rdx
  4002d0:	c3                   	retq   

00000000004002d1 <yeild>:
  4002d1:	ba 18 00 00 00       	mov    $0x18,%edx
  4002d6:	48 89 d0             	mov    %rdx,%rax
  4002d9:	0f 05                	syscall 
  4002db:	48 89 c2             	mov    %rax,%rdx
  4002de:	c3                   	retq   

00000000004002df <putchar>:
  4002df:	48 83 ec 18          	sub    $0x18,%rsp
  4002e3:	89 7c 24 0c          	mov    %edi,0xc(%rsp)
  4002e7:	48 8d 74 24 0c       	lea    0xc(%rsp),%rsi
  4002ec:	ba 01 00 00 00       	mov    $0x1,%edx
  4002f1:	bf 01 00 00 00       	mov    $0x1,%edi
  4002f6:	e8 dc 04 00 00       	callq  4007d7 <write>
  4002fb:	8b 44 24 0c          	mov    0xc(%rsp),%eax
  4002ff:	48 83 c4 18          	add    $0x18,%rsp
  400303:	c3                   	retq   

0000000000400304 <fork>:
  400304:	ba 39 00 00 00       	mov    $0x39,%edx
  400309:	48 89 d0             	mov    %rdx,%rax
  40030c:	0f 05                	syscall 
  40030e:	48 89 c2             	mov    %rax,%rdx
  400311:	89 d0                	mov    %edx,%eax
  400313:	c3                   	retq   

0000000000400314 <getnum>:
  400314:	8d 46 ff             	lea    -0x1(%rsi),%eax
  400317:	48 98                	cltq   
  400319:	48 39 f8             	cmp    %rdi,%rax
  40031c:	72 0e                	jb     40032c <getnum+0x18>
  40031e:	8d 57 30             	lea    0x30(%rdi),%edx
  400321:	8d 47 57             	lea    0x57(%rdi),%eax
  400324:	48 83 ff 09          	cmp    $0x9,%rdi
  400328:	0f 46 c2             	cmovbe %edx,%eax
  40032b:	c3                   	retq   
  40032c:	55                   	push   %rbp
  40032d:	53                   	push   %rbx
  40032e:	48 83 ec 08          	sub    $0x8,%rsp
  400332:	89 f3                	mov    %esi,%ebx
  400334:	48 89 f8             	mov    %rdi,%rax
  400337:	48 63 ce             	movslq %esi,%rcx
  40033a:	ba 00 00 00 00       	mov    $0x0,%edx
  40033f:	48 f7 f1             	div    %rcx
  400342:	48 89 d5             	mov    %rdx,%rbp
  400345:	48 89 c7             	mov    %rax,%rdi
  400348:	e8 c7 ff ff ff       	callq  400314 <getnum>
  40034d:	89 de                	mov    %ebx,%esi
  40034f:	48 89 ef             	mov    %rbp,%rdi
  400352:	e8 bd ff ff ff       	callq  400314 <getnum>
  400357:	b8 00 00 00 00       	mov    $0x0,%eax
  40035c:	48 83 c4 08          	add    $0x8,%rsp
  400360:	5b                   	pop    %rbx
  400361:	5d                   	pop    %rbp
  400362:	c3                   	retq   

0000000000400363 <putstring>:
  400363:	0f b6 07             	movzbl (%rdi),%eax
  400366:	84 c0                	test   %al,%al
  400368:	74 13                	je     40037d <putstring+0x1a>
  40036a:	48 ff c7             	inc    %rdi
  40036d:	48 63 ca             	movslq %edx,%rcx
  400370:	88 04 0e             	mov    %al,(%rsi,%rcx,1)
  400373:	0f b6 07             	movzbl (%rdi),%eax
  400376:	8d 52 01             	lea    0x1(%rdx),%edx
  400379:	84 c0                	test   %al,%al
  40037b:	75 ed                	jne    40036a <putstring+0x7>
  40037d:	f3 c3                	repz retq 

000000000040037f <printf>:
  40037f:	41 57                	push   %r15
  400381:	41 56                	push   %r14
  400383:	41 55                	push   %r13
  400385:	41 54                	push   %r12
  400387:	55                   	push   %rbp
  400388:	53                   	push   %rbx
  400389:	48 81 ec a8 00 00 00 	sub    $0xa8,%rsp
  400390:	48 89 fd             	mov    %rdi,%rbp
  400393:	48 89 74 24 78       	mov    %rsi,0x78(%rsp)
  400398:	48 89 94 24 80 00 00 	mov    %rdx,0x80(%rsp)
  40039f:	00 
  4003a0:	48 89 8c 24 88 00 00 	mov    %rcx,0x88(%rsp)
  4003a7:	00 
  4003a8:	4c 89 84 24 90 00 00 	mov    %r8,0x90(%rsp)
  4003af:	00 
  4003b0:	4c 89 8c 24 98 00 00 	mov    %r9,0x98(%rsp)
  4003b7:	00 
  4003b8:	c7 44 24 18 08 00 00 	movl   $0x8,0x18(%rsp)
  4003bf:	00 
  4003c0:	48 8d 84 24 e0 00 00 	lea    0xe0(%rsp),%rax
  4003c7:	00 
  4003c8:	48 89 44 24 20       	mov    %rax,0x20(%rsp)
  4003cd:	48 8d 44 24 70       	lea    0x70(%rsp),%rax
  4003d2:	48 89 44 24 28       	mov    %rax,0x28(%rsp)
  4003d7:	41 bd 00 00 00 00    	mov    $0x0,%r13d
  4003dd:	4c 8d 74 24 30       	lea    0x30(%rsp),%r14
  4003e2:	4c 8d 25 e7 04 00 00 	lea    0x4e7(%rip),%r12        # 4008d0 <memset+0xd5>
  4003e9:	48 8d 44 24 14       	lea    0x14(%rsp),%rax
  4003ee:	48 89 44 24 08       	mov    %rax,0x8(%rsp)
  4003f3:	e9 7f 02 00 00       	jmpq   400677 <printf+0x2f8>
  4003f8:	3c 25                	cmp    $0x25,%al
  4003fa:	0f 85 5f 02 00 00    	jne    40065f <printf+0x2e0>
  400400:	0f b6 7d 01          	movzbl 0x1(%rbp),%edi
  400404:	40 80 ff 73          	cmp    $0x73,%dil
  400408:	75 5d                	jne    400467 <printf+0xe8>
  40040a:	8b 44 24 18          	mov    0x18(%rsp),%eax
  40040e:	83 f8 2f             	cmp    $0x2f,%eax
  400411:	77 10                	ja     400423 <printf+0xa4>
  400413:	89 c2                	mov    %eax,%edx
  400415:	48 03 54 24 28       	add    0x28(%rsp),%rdx
  40041a:	83 c0 08             	add    $0x8,%eax
  40041d:	89 44 24 18          	mov    %eax,0x18(%rsp)
  400421:	eb 0e                	jmp    400431 <printf+0xb2>
  400423:	48 8b 54 24 20       	mov    0x20(%rsp),%rdx
  400428:	48 8d 42 08          	lea    0x8(%rdx),%rax
  40042c:	48 89 44 24 20       	mov    %rax,0x20(%rsp)
  400431:	48 8b 32             	mov    (%rdx),%rsi
  400434:	48 85 f6             	test   %rsi,%rsi
  400437:	74 25                	je     40045e <printf+0xdf>
  400439:	80 3e 00             	cmpb   $0x0,(%rsi)
  40043c:	74 20                	je     40045e <printf+0xdf>
  40043e:	48 8d 5e 01          	lea    0x1(%rsi),%rbx
  400442:	ba 01 00 00 00       	mov    $0x1,%edx
  400447:	bf 01 00 00 00       	mov    $0x1,%edi
  40044c:	e8 86 03 00 00       	callq  4007d7 <write>
  400451:	48 85 db             	test   %rbx,%rbx
  400454:	74 08                	je     40045e <printf+0xdf>
  400456:	48 89 de             	mov    %rbx,%rsi
  400459:	80 3b 00             	cmpb   $0x0,(%rbx)
  40045c:	75 e0                	jne    40043e <printf+0xbf>
  40045e:	48 83 c5 02          	add    $0x2,%rbp
  400462:	e9 10 02 00 00       	jmpq   400677 <printf+0x2f8>
  400467:	40 80 ff 64          	cmp    $0x64,%dil
  40046b:	74 1b                	je     400488 <printf+0x109>
  40046d:	40 0f be ff          	movsbl %dil,%edi
  400471:	e8 83 02 00 00       	callq  4006f9 <isdigit>
  400476:	85 c0                	test   %eax,%eax
  400478:	0f 84 de 00 00 00    	je     40055c <printf+0x1dd>
  40047e:	80 7d 02 64          	cmpb   $0x64,0x2(%rbp)
  400482:	0f 85 d4 00 00 00    	jne    40055c <printf+0x1dd>
  400488:	ba 40 00 00 00       	mov    $0x40,%edx
  40048d:	be 00 00 00 00       	mov    $0x0,%esi
  400492:	4c 89 f7             	mov    %r14,%rdi
  400495:	e8 61 03 00 00       	callq  4007fb <memset>
  40049a:	8b 44 24 18          	mov    0x18(%rsp),%eax
  40049e:	83 f8 2f             	cmp    $0x2f,%eax
  4004a1:	77 10                	ja     4004b3 <printf+0x134>
  4004a3:	89 c2                	mov    %eax,%edx
  4004a5:	48 03 54 24 28       	add    0x28(%rsp),%rdx
  4004aa:	83 c0 08             	add    $0x8,%eax
  4004ad:	89 44 24 18          	mov    %eax,0x18(%rsp)
  4004b1:	eb 0e                	jmp    4004c1 <printf+0x142>
  4004b3:	48 8b 54 24 20       	mov    0x20(%rsp),%rdx
  4004b8:	48 8d 42 08          	lea    0x8(%rdx),%rax
  4004bc:	48 89 44 24 20       	mov    %rax,0x20(%rsp)
  4004c1:	44 8b 3a             	mov    (%rdx),%r15d
  4004c4:	0f be 7d 01          	movsbl 0x1(%rbp),%edi
  4004c8:	e8 2c 02 00 00       	callq  4006f9 <isdigit>
  4004cd:	bb 00 00 00 00       	mov    $0x0,%ebx
  4004d2:	85 c0                	test   %eax,%eax
  4004d4:	74 0b                	je     4004e1 <printf+0x162>
  4004d6:	48 8d 7d 01          	lea    0x1(%rbp),%rdi
  4004da:	e8 d4 01 00 00       	callq  4006b3 <atoi>
  4004df:	89 c3                	mov    %eax,%ebx
  4004e1:	45 85 ff             	test   %r15d,%r15d
  4004e4:	79 21                	jns    400507 <printf+0x188>
  4004e6:	c6 44 24 30 2d       	movb   $0x2d,0x30(%rsp)
  4004eb:	ba 01 00 00 00       	mov    $0x1,%edx
  4004f0:	4c 89 f6             	mov    %r14,%rsi
  4004f3:	bf 01 00 00 00       	mov    $0x1,%edi
  4004f8:	e8 da 02 00 00       	callq  4007d7 <write>
  4004fd:	c6 44 24 30 00       	movb   $0x0,0x30(%rsp)
  400502:	41 f7 df             	neg    %r15d
  400505:	ff cb                	dec    %ebx
  400507:	ba 0a 00 00 00       	mov    $0xa,%edx
  40050c:	4c 89 f6             	mov    %r14,%rsi
  40050f:	44 89 ff             	mov    %r15d,%edi
  400512:	e8 f0 01 00 00       	callq  400707 <itoa>
  400517:	4c 89 f7             	mov    %r14,%rdi
  40051a:	e8 79 01 00 00       	callq  400698 <strlen>
  40051f:	29 c3                	sub    %eax,%ebx
  400521:	4c 89 f7             	mov    %r14,%rdi
  400524:	e8 6f 01 00 00       	callq  400698 <strlen>
  400529:	48 63 d0             	movslq %eax,%rdx
  40052c:	4c 89 f6             	mov    %r14,%rsi
  40052f:	bf 01 00 00 00       	mov    $0x1,%edi
  400534:	e8 9e 02 00 00       	callq  4007d7 <write>
  400539:	85 db                	test   %ebx,%ebx
  40053b:	7e 16                	jle    400553 <printf+0x1d4>
  40053d:	ba 01 00 00 00       	mov    $0x1,%edx
  400542:	4c 89 e6             	mov    %r12,%rsi
  400545:	bf 01 00 00 00       	mov    $0x1,%edi
  40054a:	e8 88 02 00 00       	callq  4007d7 <write>
  40054f:	ff cb                	dec    %ebx
  400551:	75 ea                	jne    40053d <printf+0x1be>
  400553:	48 83 c5 03          	add    $0x3,%rbp
  400557:	e9 1b 01 00 00       	jmpq   400677 <printf+0x2f8>
  40055c:	0f b6 45 01          	movzbl 0x1(%rbp),%eax
  400560:	3c 63                	cmp    $0x63,%al
  400562:	75 4a                	jne    4005ae <printf+0x22f>
  400564:	8b 44 24 18          	mov    0x18(%rsp),%eax
  400568:	83 f8 2f             	cmp    $0x2f,%eax
  40056b:	77 10                	ja     40057d <printf+0x1fe>
  40056d:	89 c2                	mov    %eax,%edx
  40056f:	48 03 54 24 28       	add    0x28(%rsp),%rdx
  400574:	83 c0 08             	add    $0x8,%eax
  400577:	89 44 24 18          	mov    %eax,0x18(%rsp)
  40057b:	eb 0e                	jmp    40058b <printf+0x20c>
  40057d:	48 8b 54 24 20       	mov    0x20(%rsp),%rdx
  400582:	48 8d 42 08          	lea    0x8(%rdx),%rax
  400586:	48 89 44 24 20       	mov    %rax,0x20(%rsp)
  40058b:	8b 02                	mov    (%rdx),%eax
  40058d:	89 44 24 14          	mov    %eax,0x14(%rsp)
  400591:	ba 01 00 00 00       	mov    $0x1,%edx
  400596:	48 8b 74 24 08       	mov    0x8(%rsp),%rsi
  40059b:	bf 01 00 00 00       	mov    $0x1,%edi
  4005a0:	e8 32 02 00 00       	callq  4007d7 <write>
  4005a5:	48 83 c5 02          	add    $0x2,%rbp
  4005a9:	e9 c9 00 00 00       	jmpq   400677 <printf+0x2f8>
  4005ae:	83 e0 f7             	and    $0xfffffff7,%eax
  4005b1:	3c 70                	cmp    $0x70,%al
  4005b3:	0f 85 be 00 00 00    	jne    400677 <printf+0x2f8>
  4005b9:	ba 40 00 00 00       	mov    $0x40,%edx
  4005be:	be 00 00 00 00       	mov    $0x0,%esi
  4005c3:	4c 89 f7             	mov    %r14,%rdi
  4005c6:	e8 30 02 00 00       	callq  4007fb <memset>
  4005cb:	8b 44 24 18          	mov    0x18(%rsp),%eax
  4005cf:	83 f8 2f             	cmp    $0x2f,%eax
  4005d2:	77 10                	ja     4005e4 <printf+0x265>
  4005d4:	89 c2                	mov    %eax,%edx
  4005d6:	48 03 54 24 28       	add    0x28(%rsp),%rdx
  4005db:	83 c0 08             	add    $0x8,%eax
  4005de:	89 44 24 18          	mov    %eax,0x18(%rsp)
  4005e2:	eb 0e                	jmp    4005f2 <printf+0x273>
  4005e4:	48 8b 54 24 20       	mov    0x20(%rsp),%rdx
  4005e9:	48 8d 42 08          	lea    0x8(%rdx),%rax
  4005ed:	48 89 44 24 20       	mov    %rax,0x20(%rsp)
  4005f2:	8b 1a                	mov    (%rdx),%ebx
  4005f4:	85 db                	test   %ebx,%ebx
  4005f6:	79 1e                	jns    400616 <printf+0x297>
  4005f8:	c6 44 24 30 2d       	movb   $0x2d,0x30(%rsp)
  4005fd:	ba 01 00 00 00       	mov    $0x1,%edx
  400602:	4c 89 f6             	mov    %r14,%rsi
  400605:	bf 01 00 00 00       	mov    $0x1,%edi
  40060a:	e8 c8 01 00 00       	callq  4007d7 <write>
  40060f:	c6 44 24 30 00       	movb   $0x0,0x30(%rsp)
  400614:	f7 db                	neg    %ebx
  400616:	ba 10 00 00 00       	mov    $0x10,%edx
  40061b:	4c 89 f6             	mov    %r14,%rsi
  40061e:	89 df                	mov    %ebx,%edi
  400620:	e8 e2 00 00 00       	callq  400707 <itoa>
  400625:	80 7d 01 70          	cmpb   $0x70,0x1(%rbp)
  400629:	75 16                	jne    400641 <printf+0x2c2>
  40062b:	ba 02 00 00 00       	mov    $0x2,%edx
  400630:	48 8d 35 9b 02 00 00 	lea    0x29b(%rip),%rsi        # 4008d2 <memset+0xd7>
  400637:	bf 01 00 00 00       	mov    $0x1,%edi
  40063c:	e8 96 01 00 00       	callq  4007d7 <write>
  400641:	4c 89 f7             	mov    %r14,%rdi
  400644:	e8 4f 00 00 00       	callq  400698 <strlen>
  400649:	48 63 d0             	movslq %eax,%rdx
  40064c:	4c 89 f6             	mov    %r14,%rsi
  40064f:	bf 01 00 00 00       	mov    $0x1,%edi
  400654:	e8 7e 01 00 00       	callq  4007d7 <write>
  400659:	48 83 c5 02          	add    $0x2,%rbp
  40065d:	eb 18                	jmp    400677 <printf+0x2f8>
  40065f:	ba 01 00 00 00       	mov    $0x1,%edx
  400664:	48 89 ee             	mov    %rbp,%rsi
  400667:	bf 01 00 00 00       	mov    $0x1,%edi
  40066c:	e8 66 01 00 00       	callq  4007d7 <write>
  400671:	41 ff c5             	inc    %r13d
  400674:	48 ff c5             	inc    %rbp
  400677:	0f b6 45 00          	movzbl 0x0(%rbp),%eax
  40067b:	84 c0                	test   %al,%al
  40067d:	0f 85 75 fd ff ff    	jne    4003f8 <printf+0x79>
  400683:	44 89 e8             	mov    %r13d,%eax
  400686:	48 81 c4 a8 00 00 00 	add    $0xa8,%rsp
  40068d:	5b                   	pop    %rbx
  40068e:	5d                   	pop    %rbp
  40068f:	41 5c                	pop    %r12
  400691:	41 5d                	pop    %r13
  400693:	41 5e                	pop    %r14
  400695:	41 5f                	pop    %r15
  400697:	c3                   	retq   

0000000000400698 <strlen>:
  400698:	80 3f 00             	cmpb   $0x0,(%rdi)
  40069b:	74 10                	je     4006ad <strlen+0x15>
  40069d:	b8 00 00 00 00       	mov    $0x0,%eax
  4006a2:	48 ff c0             	inc    %rax
  4006a5:	80 3c 07 00          	cmpb   $0x0,(%rdi,%rax,1)
  4006a9:	75 f7                	jne    4006a2 <strlen+0xa>
  4006ab:	f3 c3                	repz retq 
  4006ad:	b8 00 00 00 00       	mov    $0x0,%eax
  4006b2:	c3                   	retq   

00000000004006b3 <atoi>:
  4006b3:	0f b6 17             	movzbl (%rdi),%edx
  4006b6:	8d 42 d0             	lea    -0x30(%rdx),%eax
  4006b9:	3c 09                	cmp    $0x9,%al
  4006bb:	77 36                	ja     4006f3 <atoi+0x40>
  4006bd:	b8 00 00 00 00       	mov    $0x0,%eax
  4006c2:	b9 00 00 00 00       	mov    $0x0,%ecx
  4006c7:	48 8d 34 c5 00 00 00 	lea    0x0(,%rax,8),%rsi
  4006ce:	00 
  4006cf:	48 8d 04 46          	lea    (%rsi,%rax,2),%rax
  4006d3:	0f be d2             	movsbl %dl,%edx
  4006d6:	83 ea 30             	sub    $0x30,%edx
  4006d9:	48 63 d2             	movslq %edx,%rdx
  4006dc:	48 01 d0             	add    %rdx,%rax
  4006df:	ff c1                	inc    %ecx
  4006e1:	48 63 d1             	movslq %ecx,%rdx
  4006e4:	0f b6 14 17          	movzbl (%rdi,%rdx,1),%edx
  4006e8:	8d 72 d0             	lea    -0x30(%rdx),%esi
  4006eb:	40 80 fe 09          	cmp    $0x9,%sil
  4006ef:	76 d6                	jbe    4006c7 <atoi+0x14>
  4006f1:	f3 c3                	repz retq 
  4006f3:	b8 00 00 00 00       	mov    $0x0,%eax
  4006f8:	c3                   	retq   

00000000004006f9 <isdigit>:
  4006f9:	83 ef 30             	sub    $0x30,%edi
  4006fc:	40 80 ff 09          	cmp    $0x9,%dil
  400700:	0f 96 c0             	setbe  %al
  400703:	0f b6 c0             	movzbl %al,%eax
  400706:	c3                   	retq   

0000000000400707 <itoa>:
  400707:	89 d1                	mov    %edx,%ecx
  400709:	49 89 f0             	mov    %rsi,%r8
  40070c:	85 ff                	test   %edi,%edi
  40070e:	75 0c                	jne    40071c <itoa+0x15>
  400710:	c6 06 30             	movb   $0x30,(%rsi)
  400713:	c6 46 01 00          	movb   $0x0,0x1(%rsi)
  400717:	e9 b7 00 00 00       	jmpq   4007d3 <itoa+0xcc>
  40071c:	83 f9 10             	cmp    $0x10,%ecx
  40071f:	75 5a                	jne    40077b <itoa+0x74>
  400721:	89 fa                	mov    %edi,%edx
  400723:	c1 fa 1f             	sar    $0x1f,%edx
  400726:	c1 ea 1c             	shr    $0x1c,%edx
  400729:	8d 04 17             	lea    (%rdi,%rdx,1),%eax
  40072c:	83 e0 0f             	and    $0xf,%eax
  40072f:	29 d0                	sub    %edx,%eax
  400731:	83 f8 0a             	cmp    $0xa,%eax
  400734:	75 06                	jne    40073c <itoa+0x35>
  400736:	41 c6 00 41          	movb   $0x41,(%r8)
  40073a:	eb 4a                	jmp    400786 <itoa+0x7f>
  40073c:	83 f8 0b             	cmp    $0xb,%eax
  40073f:	75 06                	jne    400747 <itoa+0x40>
  400741:	41 c6 00 42          	movb   $0x42,(%r8)
  400745:	eb 3f                	jmp    400786 <itoa+0x7f>
  400747:	83 f8 0c             	cmp    $0xc,%eax
  40074a:	75 06                	jne    400752 <itoa+0x4b>
  40074c:	41 c6 00 43          	movb   $0x43,(%r8)
  400750:	eb 34                	jmp    400786 <itoa+0x7f>
  400752:	83 f8 0d             	cmp    $0xd,%eax
  400755:	75 06                	jne    40075d <itoa+0x56>
  400757:	41 c6 00 44          	movb   $0x44,(%r8)
  40075b:	eb 29                	jmp    400786 <itoa+0x7f>
  40075d:	83 f8 0e             	cmp    $0xe,%eax
  400760:	75 06                	jne    400768 <itoa+0x61>
  400762:	41 c6 00 45          	movb   $0x45,(%r8)
  400766:	eb 1e                	jmp    400786 <itoa+0x7f>
  400768:	83 f8 0f             	cmp    $0xf,%eax
  40076b:	75 06                	jne    400773 <itoa+0x6c>
  40076d:	41 c6 00 46          	movb   $0x46,(%r8)
  400771:	eb 13                	jmp    400786 <itoa+0x7f>
  400773:	83 c0 30             	add    $0x30,%eax
  400776:	41 88 00             	mov    %al,(%r8)
  400779:	eb 0b                	jmp    400786 <itoa+0x7f>
  40077b:	89 f8                	mov    %edi,%eax
  40077d:	99                   	cltd   
  40077e:	f7 f9                	idiv   %ecx
  400780:	83 c2 30             	add    $0x30,%edx
  400783:	41 88 10             	mov    %dl,(%r8)
  400786:	89 f8                	mov    %edi,%eax
  400788:	99                   	cltd   
  400789:	f7 f9                	idiv   %ecx
  40078b:	89 c7                	mov    %eax,%edi
  40078d:	49 ff c0             	inc    %r8
  400790:	85 c0                	test   %eax,%eax
  400792:	75 88                	jne    40071c <itoa+0x15>
  400794:	41 c6 00 00          	movb   $0x0,(%r8)
  400798:	49 29 f0             	sub    %rsi,%r8
  40079b:	44 89 c1             	mov    %r8d,%ecx
  40079e:	c1 e9 1f             	shr    $0x1f,%ecx
  4007a1:	44 01 c1             	add    %r8d,%ecx
  4007a4:	d1 f9                	sar    %ecx
  4007a6:	85 c9                	test   %ecx,%ecx
  4007a8:	7e 29                	jle    4007d3 <itoa+0xcc>
  4007aa:	48 89 f0             	mov    %rsi,%rax
  4007ad:	4d 63 c0             	movslq %r8d,%r8
  4007b0:	4a 8d 54 06 ff       	lea    -0x1(%rsi,%r8,1),%rdx
  4007b5:	8d 49 ff             	lea    -0x1(%rcx),%ecx
  4007b8:	4c 8d 44 0e 01       	lea    0x1(%rsi,%rcx,1),%r8
  4007bd:	0f b6 08             	movzbl (%rax),%ecx
  4007c0:	0f b6 3a             	movzbl (%rdx),%edi
  4007c3:	40 88 38             	mov    %dil,(%rax)
  4007c6:	88 0a                	mov    %cl,(%rdx)
  4007c8:	48 ff c0             	inc    %rax
  4007cb:	48 ff ca             	dec    %rdx
  4007ce:	4c 39 c0             	cmp    %r8,%rax
  4007d1:	75 ea                	jne    4007bd <itoa+0xb6>
  4007d3:	48 89 f0             	mov    %rsi,%rax
  4007d6:	c3                   	retq   

00000000004007d7 <write>:
  4007d7:	48 89 f1             	mov    %rsi,%rcx
  4007da:	49 89 d2             	mov    %rdx,%r10
  4007dd:	4c 63 cf             	movslq %edi,%r9
  4007e0:	41 b8 01 00 00 00    	mov    $0x1,%r8d
  4007e6:	4c 89 c0             	mov    %r8,%rax
  4007e9:	4c 89 cf             	mov    %r9,%rdi
  4007ec:	48 89 ce             	mov    %rcx,%rsi
  4007ef:	4c 89 d2             	mov    %r10,%rdx
  4007f2:	0f 05                	syscall 
  4007f4:	48 89 c1             	mov    %rax,%rcx
  4007f7:	48 89 c8             	mov    %rcx,%rax
  4007fa:	c3                   	retq   

00000000004007fb <memset>:
  4007fb:	85 d2                	test   %edx,%edx
  4007fd:	7e 14                	jle    400813 <memset+0x18>
  4007ff:	8d 42 ff             	lea    -0x1(%rdx),%eax
  400802:	48 8d 44 07 01       	lea    0x1(%rdi,%rax,1),%rax
  400807:	48 ff c7             	inc    %rdi
  40080a:	40 88 77 ff          	mov    %sil,-0x1(%rdi)
  40080e:	48 39 c7             	cmp    %rax,%rdi
  400811:	75 f4                	jne    400807 <memset+0xc>
  400813:	f3 c3                	repz retq 
